target datalayout = "e-m:e-p270:32:32-p271:32:32-p272:64:64-i64:64-i128:128-f80:128-n8:16:32:64-S128"
target triple = "x86_64-pc-linux-gnu"

%struct.ARKodeMemRec = type { ptr, double, ptr, i32, i32, double, double, ptr, i32, double, ptr, i32, i32, ptr, ptr, i32, ptr, ptr, i32, ptr, ptr, ptr, ptr, ptr, ptr, ptr, ptr, ptr, ptr, ptr, ptr, ptr, ptr, ptr, i32, ptr, ptr, i32, ptr, i32, ptr, ptr, ptr, ptr, ptr, ptr, ptr, ptr, ptr, ptr, ptr, ptr, ptr, ptr, ptr, ptr, ptr, ptr, ptr, ptr, ptr, ptr, ptr, ptr, ptr, ptr, i32, ptr, ptr, ptr, ptr, ptr, ptr, ptr, i32, ptr, ptr, ptr, i32, ptr, ptr, ptr, ptr, ptr, ptr, ptr, i32, i32, i32, i32, double, double, double, double, double, double, double, double, double, double, i32, ptr, i64, i32, i32, i32, i32, i64, i64, i32, i64, i64, i64, i64, i64, i64, i64, double, double, double, double, double, i32, double, double, i32, i32, i32, i32, i32, i32, i32, i32, ptr, i32, ptr, ptr, ptr, ptr, i32, i32, i32 }
%struct.ARKLsMemRec = type { i32, i32, i32, ptr, ptr, i32, i32, double, double, ptr, ptr, ptr, ptr, ptr, ptr, ptr, i64, double, i64, i64, i64, i64, i64, i64, i64, i64, i64, double, ptr, ptr, ptr, ptr, i32, ptr, ptr, ptr, ptr, i32, ptr, ptr, i32 }

@.str = private unnamed_addr constant [118 x i8] c"generated/home/dtcxzyw/WorkSpace/Projects/compilers/llvm-opt-benchmark/bench/sundials/sundials/src/arkode/arkode_ls.c\00", align 1
@.str.1 = private unnamed_addr constant [27 x i8] c"arkode_mem = NULL illegal.\00", align 1
@.str.2 = private unnamed_addr constant [58 x i8] c"time-stepping module does not require an algebraic solver\00", align 1
@__func__.ARKodeSetJacEvalFrequency = private unnamed_addr constant [26 x i8] c"ARKodeSetJacEvalFrequency\00", align 1
@.str.64 = private unnamed_addr constant [30 x i8] c"Linear solver memory is NULL.\00", align 1

; Function Attrs: nounwind uwtable
define i32 @arkLs_AccessLMem(ptr noundef %0, ptr noundef %1, ptr noundef %2) #0 {
  %4 = alloca i32, align 4
  %5 = alloca ptr, align 8
  %6 = alloca ptr, align 8
  %7 = alloca ptr, align 8
  %8 = alloca ptr, align 8
  %9 = alloca i32, align 4
  store ptr %0, ptr %5, align 8, !tbaa !11
  store ptr %1, ptr %6, align 8, !tbaa !155
  store ptr %2, ptr %7, align 8, !tbaa !157
  call void @llvm.lifetime.start.p0(i64 8, ptr %8) #7
  %10 = load ptr, ptr %5, align 8, !tbaa !11
  %11 = getelementptr inbounds nuw %struct.ARKodeMemRec, ptr %10, i32 0, i32 42
  %12 = load ptr, ptr %11, align 8, !tbaa !41
  %13 = load ptr, ptr %5, align 8, !tbaa !11
  %14 = call ptr %12(ptr noundef %13)
  store ptr %14, ptr %8, align 8, !tbaa !3
  %15 = load ptr, ptr %8, align 8, !tbaa !3
  %16 = icmp eq ptr %15, null
  br i1 %16, label %17, label %20

17:                                               ; preds = %3
  %18 = load ptr, ptr %5, align 8, !tbaa !11
  %19 = load ptr, ptr %6, align 8, !tbaa !155
  call void (ptr, i32, i32, ptr, ptr, ptr, ...) @arkProcessError(ptr noundef %18, i32 noundef -2, i32 noundef 4072, ptr noundef %19, ptr noundef @.str, ptr noundef @.str.64)
  store i32 -2, ptr %4, align 4
  store i32 1, ptr %9, align 4
  br label %23

20:                                               ; preds = %3
  %21 = load ptr, ptr %8, align 8, !tbaa !3
  %22 = load ptr, ptr %7, align 8, !tbaa !157
  store ptr %21, ptr %22, align 8, !tbaa !44
  store i32 0, ptr %4, align 4
  store i32 1, ptr %9, align 4
  br label %23

23:                                               ; preds = %20, %17
  call void @llvm.lifetime.end.p0(i64 8, ptr %8) #7
  %24 = load i32, ptr %4, align 4
  ret i32 %24
}

; Function Attrs: nounwind uwtable
define i32 @ARKodeSetJacEvalFrequency(ptr noundef %0, i64 noundef %1) #0 {
  %3 = alloca i32, align 4
  %4 = alloca ptr, align 8
  %5 = alloca i64, align 8
  %6 = alloca ptr, align 8
  %7 = alloca ptr, align 8
  %8 = alloca i32, align 4
  %9 = alloca i32, align 4
  store ptr %0, ptr %4, align 8, !tbaa !3
  store i64 %1, ptr %5, align 8, !tbaa !117
  call void @llvm.lifetime.start.p0(i64 8, ptr %6) #7
  call void @llvm.lifetime.start.p0(i64 8, ptr %7) #7
  call void @llvm.lifetime.start.p0(i64 4, ptr %8) #7
  %10 = load ptr, ptr %4, align 8, !tbaa !3
  %11 = icmp eq ptr %10, null
  br i1 %11, label %12, label %13

12:                                               ; preds = %2
  call void (ptr, i32, i32, ptr, ptr, ptr, ...) @arkProcessError(ptr noundef null, i32 noundef -21, i32 noundef 753, ptr noundef @__func__.ARKodeSetJacEvalFrequency, ptr noundef @.str, ptr noundef @.str.1)
  store i32 -21, ptr %3, align 4
  store i32 1, ptr %9, align 4
  br label %38

13:                                               ; preds = %2
  %14 = load ptr, ptr %4, align 8, !tbaa !3
  store ptr %14, ptr %6, align 8, !tbaa !11
  %15 = load ptr, ptr %6, align 8, !tbaa !11
  %16 = getelementptr inbounds nuw %struct.ARKodeMemRec, ptr %15, i32 0, i32 39
  %17 = load i32, ptr %16, align 8, !tbaa !13
  %18 = icmp ne i32 %17, 0
  br i1 %18, label %21, label %19

19:                                               ; preds = %13
  %20 = load ptr, ptr %6, align 8, !tbaa !11
  call void (ptr, i32, i32, ptr, ptr, ptr, ...) @arkProcessError(ptr noundef %20, i32 noundef -48, i32 noundef 762, ptr noundef @__func__.ARKodeSetJacEvalFrequency, ptr noundef @.str, ptr noundef @.str.2)
  store i32 -48, ptr %3, align 4
  store i32 1, ptr %9, align 4
  br label %38

21:                                               ; preds = %13
  %22 = load ptr, ptr %6, align 8, !tbaa !11
  %23 = call i32 @arkLs_AccessLMem(ptr noundef %22, ptr noundef @__func__.ARKodeSetJacEvalFrequency, ptr noundef %7)
  store i32 %23, ptr %8, align 4, !tbaa !30
  %24 = load i32, ptr %8, align 4, !tbaa !30
  %25 = icmp ne i32 %24, 0
  br i1 %25, label %26, label %28

26:                                               ; preds = %21
  %27 = load i32, ptr %8, align 4, !tbaa !30
  store i32 %27, ptr %3, align 4
  store i32 1, ptr %9, align 4
  br label %38

28:                                               ; preds = %21
  %29 = load i64, ptr %5, align 8, !tbaa !117
  %30 = icmp sle i64 %29, 0
  br i1 %30, label %31, label %32

31:                                               ; preds = %28
  br label %34

32:                                               ; preds = %28
  %33 = load i64, ptr %5, align 8, !tbaa !117
  br label %34

34:                                               ; preds = %32, %31
  %35 = phi i64 [ 51, %31 ], [ %33, %32 ]
  %36 = load ptr, ptr %7, align 8, !tbaa !44
  %37 = getelementptr inbounds nuw %struct.ARKLsMemRec, ptr %36, i32 0, i32 16
  store i64 %35, ptr %37, align 8, !tbaa !66
  store i32 0, ptr %3, align 4
  store i32 1, ptr %9, align 4
  br label %38

38:                                               ; preds = %34, %26, %19, %12
  call void @llvm.lifetime.end.p0(i64 4, ptr %8) #7
  call void @llvm.lifetime.end.p0(i64 8, ptr %7) #7
  call void @llvm.lifetime.end.p0(i64 8, ptr %6) #7
  %39 = load i32, ptr %3, align 4
  ret i32 %39
}